; Function Attrs: mustprogress nofree norecurse nosync nounwind willreturn memory(read, inaccessiblemem: none) uwtable
define dso_local noundef i64 @_ZNK4llvm9StringRef17find_first_not_ofES0_m(ptr noundef nonnull readonly align 8 captures(none) dereferenceable(16) %0, ptr readonly %1, i64 %2, i64 noundef %3) local_unnamed_addr #0 align 2 {
  %5 = alloca %"class.std::bitset", align 8
  call void @llvm.memset.p0.i64(ptr noundef nonnull align 8 dereferenceable(32) %5, i8 0, i64 32, i1 false)
  %6 = getelementptr inbounds i8, ptr %1, i64 %2
  %.not19 = icmp eq i64 %2, 0
  br i1 %.not19, label %._crit_edge, label %.lr.ph

.lr.ph:                                           ; preds = %4, %.lr.ph
  %.01420 = phi ptr [ %15, %.lr.ph ], [ %1, %4 ]
  %7 = load i8, ptr %.01420, align 1
  %8 = zext i8 %7 to i64
  %9 = and i64 %8, 63
  %10 = shl nuw i64 1, %9
  %11 = lshr i64 %8, 6
  %12 = getelementptr inbounds nuw [4 x i64], ptr %5, i64 0, i64 %11
  %13 = load i64, ptr %12, align 8
  %14 = or i64 %10, %13
  store i64 %14, ptr %12, align 8
  %15 = getelementptr inbounds nuw i8, ptr %.01420, i64 1
  %.not = icmp eq ptr %15, %6
  br i1 %.not, label %._crit_edge, label %.lr.ph

._crit_edge:                                      ; preds = %.lr.ph, %4
  %16 = getelementptr inbounds nuw i8, ptr %0, i64 8
  %17 = load i64, ptr %16, align 8
  %.not1521.not = icmp ugt i64 %17, %3
  br i1 %.not1521.not, label %.lr.ph24, label %._crit_edge25

.lr.ph24:                                         ; preds = %._crit_edge
  %18 = load ptr, ptr %0, align 8
  br label %19

19:                                               ; preds = %.lr.ph24, %29
  %.01322 = phi i64 [ %3, %.lr.ph24 ], [ %30, %29 ]
  %20 = getelementptr inbounds i8, ptr %18, i64 %.01322
  %21 = load i8, ptr %20, align 1
  %22 = zext i8 %21 to i64
  %23 = lshr i64 %22, 6
  %24 = getelementptr inbounds nuw [4 x i64], ptr %5, i64 0, i64 %23
  %25 = load i64, ptr %24, align 8
  %26 = and i64 %22, 63
  %27 = shl nuw i64 1, %26
  %28 = and i64 %27, %25
  %.not18 = icmp eq i64 %28, 0
  br i1 %.not18, label %._crit_edge25, label %29

29:                                               ; preds = %19
  %30 = add i64 %.01322, 1
  %.not15 = icmp eq i64 %30, %17
  br i1 %.not15, label %._crit_edge25, label %19, !llvm.loop !22

._crit_edge25:                                    ; preds = %19, %29, %._crit_edge
  %.0 = phi i64 [ -1, %._crit_edge ], [ -1, %29 ], [ %.01322, %19 ]
  ret i64 %.0
}